; Function Attrs: mustprogress uwtable
define void @_ZN7testing4Test3RunEv(ptr noundef nonnull align 8 dereferenceable(16) %0) local_unnamed_addr #3 align 2 personality ptr @__gxx_personality_v0 {
  %2 = tail call noundef zeroext i1 @_ZN7testing4Test19HasSameFixtureClassEv()
  br i1 %2, label %3, label %44

3:                                                ; preds = %1
  %4 = load atomic i8, ptr @_ZGVZN7testing8UnitTest11GetInstanceEvE8instance acquire, align 8
  %5 = icmp eq i8 %4, 0
  br i1 %5, label %6, label %_ZN7testing8internal15GetUnitTestImplEv.exit, !prof !46

6:                                                ; preds = %3
  %7 = tail call i32 @__cxa_guard_acquire(ptr nonnull @_ZGVZN7testing8UnitTest11GetInstanceEvE8instance) #57
  %.not.i.i = icmp eq i32 %7, 0
  br i1 %.not.i.i, label %_ZN7testing8internal15GetUnitTestImplEv.exit, label %8

8:                                                ; preds = %6
  invoke void @_ZN7testing8UnitTestC1Ev(ptr noundef nonnull align 8 dereferenceable(72) @_ZZN7testing8UnitTest11GetInstanceEvE8instance)
          to label %9 unwind label %11

9:                                                ; preds = %8
  %10 = tail call i32 @__cxa_atexit(ptr nonnull @_ZN7testing8UnitTestD1Ev, ptr nonnull @_ZZN7testing8UnitTest11GetInstanceEvE8instance, ptr nonnull @__dso_handle) #57
  tail call void @__cxa_guard_release(ptr nonnull @_ZGVZN7testing8UnitTest11GetInstanceEvE8instance) #57
  br label %_ZN7testing8internal15GetUnitTestImplEv.exit

11:                                               ; preds = %8
  %12 = landingpad { ptr, i32 }
          cleanup
  tail call void @__cxa_guard_abort(ptr nonnull @_ZGVZN7testing8UnitTest11GetInstanceEvE8instance) #57
  resume { ptr, i32 } %12

_ZN7testing8internal15GetUnitTestImplEv.exit:     ; preds = %3, %6, %9
  %13 = load ptr, ptr getelementptr inbounds nuw (i8, ptr @_ZZN7testing8UnitTest11GetInstanceEvE8instance, i64 64), align 8, !tbaa !47
  %14 = getelementptr inbounds nuw i8, ptr %13, i64 528
  %15 = load ptr, ptr %14, align 8, !tbaa !673
  %16 = icmp eq ptr %15, null
  br i1 %16, label %17, label %_ZN7testing8internal15GetUnitTestImplEv.exit._ZN7testing8internal12UnitTestImpl21os_stack_trace_getterEv.exit_crit_edge

_ZN7testing8internal15GetUnitTestImplEv.exit._ZN7testing8internal12UnitTestImpl21os_stack_trace_getterEv.exit_crit_edge: ; preds = %_ZN7testing8internal15GetUnitTestImplEv.exit
  %.pre = load ptr, ptr %15, align 8, !tbaa !32
  br label %_ZN7testing8internal12UnitTestImpl21os_stack_trace_getterEv.exit

17:                                               ; preds = %_ZN7testing8internal15GetUnitTestImplEv.exit
  %18 = tail call noalias noundef nonnull dereferenceable(8) ptr @_Znwm(i64 noundef 8) #56
  store ptr getelementptr inbounds nuw inrange(-16, 32) (i8, ptr @_ZTVN7testing8internal18OsStackTraceGetterE, i64 16), ptr %18, align 8, !tbaa !32
  store ptr %18, ptr %14, align 8, !tbaa !673
  br label %_ZN7testing8internal12UnitTestImpl21os_stack_trace_getterEv.exit

_ZN7testing8internal12UnitTestImpl21os_stack_trace_getterEv.exit: ; preds = %_ZN7testing8internal15GetUnitTestImplEv.exit._ZN7testing8internal12UnitTestImpl21os_stack_trace_getterEv.exit_crit_edge, %17
  %19 = phi ptr [ getelementptr inbounds nuw inrange(-16, 32) (i8, ptr @_ZTVN7testing8internal18OsStackTraceGetterE, i64 16), %17 ], [ %.pre, %_ZN7testing8internal15GetUnitTestImplEv.exit._ZN7testing8internal12UnitTestImpl21os_stack_trace_getterEv.exit_crit_edge ]
  %20 = phi ptr [ %18, %17 ], [ %15, %_ZN7testing8internal15GetUnitTestImplEv.exit._ZN7testing8internal12UnitTestImpl21os_stack_trace_getterEv.exit_crit_edge ]
  %21 = getelementptr inbounds nuw i8, ptr %19, i64 24
  %22 = load ptr, ptr %21, align 8
  tail call void %22(ptr noundef nonnull align 8 dereferenceable(8) %20)
  tail call void @_ZN7testing8internal35HandleExceptionsInMethodIfSupportedINS_4TestEvEET0_PT_MS4_FS3_vEPKc(ptr noundef nonnull %0, i64 17, i64 0, ptr noundef nonnull @.str.207)
  %23 = tail call noundef zeroext i1 @_ZN7testing4Test15HasFatalFailureEv()
  br i1 %23, label %35, label %24

24:                                               ; preds = %_ZN7testing8internal12UnitTestImpl21os_stack_trace_getterEv.exit
  %25 = tail call noundef zeroext i1 @_ZN7testing4Test9IsSkippedEv()
  br i1 %25, label %35, label %26

26:                                               ; preds = %24
  %27 = load ptr, ptr %14, align 8, !tbaa !673
  %28 = icmp eq ptr %27, null
  br i1 %28, label %29, label %._ZN7testing8internal12UnitTestImpl21os_stack_trace_getterEv.exit8_crit_edge

._ZN7testing8internal12UnitTestImpl21os_stack_trace_getterEv.exit8_crit_edge: ; preds = %26
  %.pre10 = load ptr, ptr %27, align 8, !tbaa !32
  br label %_ZN7testing8internal12UnitTestImpl21os_stack_trace_getterEv.exit8

29:                                               ; preds = %26
  %30 = tail call noalias noundef nonnull dereferenceable(8) ptr @_Znwm(i64 noundef 8) #56
  store ptr getelementptr inbounds nuw inrange(-16, 32) (i8, ptr @_ZTVN7testing8internal18OsStackTraceGetterE, i64 16), ptr %30, align 8, !tbaa !32
  store ptr %30, ptr %14, align 8, !tbaa !673
  br label %_ZN7testing8internal12UnitTestImpl21os_stack_trace_getterEv.exit8

_ZN7testing8internal12UnitTestImpl21os_stack_trace_getterEv.exit8: ; preds = %._ZN7testing8internal12UnitTestImpl21os_stack_trace_getterEv.exit8_crit_edge, %29
  %31 = phi ptr [ getelementptr inbounds nuw inrange(-16, 32) (i8, ptr @_ZTVN7testing8internal18OsStackTraceGetterE, i64 16), %29 ], [ %.pre10, %._ZN7testing8internal12UnitTestImpl21os_stack_trace_getterEv.exit8_crit_edge ]
  %32 = phi ptr [ %30, %29 ], [ %27, %._ZN7testing8internal12UnitTestImpl21os_stack_trace_getterEv.exit8_crit_edge ]
  %33 = getelementptr inbounds nuw i8, ptr %31, i64 24
  %34 = load ptr, ptr %33, align 8
  tail call void %34(ptr noundef nonnull align 8 dereferenceable(8) %32)
  tail call void @_ZN7testing8internal35HandleExceptionsInMethodIfSupportedINS_4TestEvEET0_PT_MS4_FS3_vEPKc(ptr noundef nonnull %0, i64 33, i64 0, ptr noundef nonnull @.str.208)
  br label %35

35:                                               ; preds = %_ZN7testing8internal12UnitTestImpl21os_stack_trace_getterEv.exit8, %24, %_ZN7testing8internal12UnitTestImpl21os_stack_trace_getterEv.exit
  %36 = load ptr, ptr %14, align 8, !tbaa !673
  %37 = icmp eq ptr %36, null
  br i1 %37, label %38, label %._ZN7testing8internal12UnitTestImpl21os_stack_trace_getterEv.exit9_crit_edge

._ZN7testing8internal12UnitTestImpl21os_stack_trace_getterEv.exit9_crit_edge: ; preds = %35
  %.pre11 = load ptr, ptr %36, align 8, !tbaa !32
  br label %_ZN7testing8internal12UnitTestImpl21os_stack_trace_getterEv.exit9

38:                                               ; preds = %35
  %39 = tail call noalias noundef nonnull dereferenceable(8) ptr @_Znwm(i64 noundef 8) #56
  store ptr getelementptr inbounds nuw inrange(-16, 32) (i8, ptr @_ZTVN7testing8internal18OsStackTraceGetterE, i64 16), ptr %39, align 8, !tbaa !32
  store ptr %39, ptr %14, align 8, !tbaa !673
  br label %_ZN7testing8internal12UnitTestImpl21os_stack_trace_getterEv.exit9

_ZN7testing8internal12UnitTestImpl21os_stack_trace_getterEv.exit9: ; preds = %._ZN7testing8internal12UnitTestImpl21os_stack_trace_getterEv.exit9_crit_edge, %38
  %40 = phi ptr [ getelementptr inbounds nuw inrange(-16, 32) (i8, ptr @_ZTVN7testing8internal18OsStackTraceGetterE, i64 16), %38 ], [ %.pre11, %._ZN7testing8internal12UnitTestImpl21os_stack_trace_getterEv.exit9_crit_edge ]
  %41 = phi ptr [ %39, %38 ], [ %36, %._ZN7testing8internal12UnitTestImpl21os_stack_trace_getterEv.exit9_crit_edge ]
  %42 = getelementptr inbounds nuw i8, ptr %40, i64 24
  %43 = load ptr, ptr %42, align 8
  tail call void %43(ptr noundef nonnull align 8 dereferenceable(8) %41)
  tail call void @_ZN7testing8internal35HandleExceptionsInMethodIfSupportedINS_4TestEvEET0_PT_MS4_FS3_vEPKc(ptr noundef nonnull %0, i64 25, i64 0, ptr noundef nonnull @.str.209)
  br label %44

44:                                               ; preds = %1, %_ZN7testing8internal12UnitTestImpl21os_stack_trace_getterEv.exit9
  ret void
}